target datalayout = "e-m:e-p270:32:32-p271:32:32-p272:64:64-i64:64-i128:128-f80:128-n8:16:32:64-S128"
target triple = "x86_64-pc-linux-gnu"

; Function Attrs: inlinehint nounwind willreturn memory(read) uwtable
define available_externally i32 @tolower(i32 noundef %0) #7 {
  %2 = alloca i32, align 4
  store i32 %0, ptr %2, align 4, !tbaa !15
  %3 = load i32, ptr %2, align 4, !tbaa !15
  %4 = icmp sge i32 %3, -128
  br i1 %4, label %5, label %15

5:                                                ; preds = %1
  %6 = load i32, ptr %2, align 4, !tbaa !15
  %7 = icmp slt i32 %6, 256
  br i1 %7, label %8, label %15

8:                                                ; preds = %5
  %9 = call ptr @__ctype_tolower_loc() #13
  %10 = load ptr, ptr %9, align 8, !tbaa !35
  %11 = load i32, ptr %2, align 4, !tbaa !15
  %12 = sext i32 %11 to i64
  %13 = getelementptr inbounds i32, ptr %10, i64 %12
  %14 = load i32, ptr %13, align 4, !tbaa !15
  br label %17

15:                                               ; preds = %5, %1
  %16 = load i32, ptr %2, align 4, !tbaa !15
  br label %17

17:                                               ; preds = %15, %8
  %18 = phi i32 [ %14, %8 ], [ %16, %15 ]
  ret i32 %18
}

; Function Attrs: nounwind uwtable
define internal i32 @match_class(i32 noundef %0, i32 noundef %1) #0 {
  %3 = alloca i32, align 4
  %4 = alloca i32, align 4
  %5 = alloca i32, align 4
  %6 = alloca i32, align 4
  %7 = alloca i32, align 4
  %8 = alloca i32, align 4
  %9 = alloca i32, align 4
  %10 = alloca i32, align 4
  store i32 %0, ptr %4, align 4, !tbaa !15
  store i32 %1, ptr %5, align 4, !tbaa !15
  call void @llvm.lifetime.start.p0(i64 4, ptr %6) #11
  call void @llvm.lifetime.start.p0(i64 4, ptr %7) #11
  %11 = load i32, ptr %5, align 4, !tbaa !15
  %12 = call i1 @llvm.is.constant.i32(i32 %11)
  br i1 %12, label %13, label %31

13:                                               ; preds = %2
  call void @llvm.lifetime.start.p0(i64 4, ptr %8) #11
  %14 = load i32, ptr %5, align 4, !tbaa !15
  store i32 %14, ptr %8, align 4, !tbaa !15
  %15 = load i32, ptr %8, align 4, !tbaa !15
  %16 = icmp slt i32 %15, -128
  br i1 %16, label %20, label %17

17:                                               ; preds = %13
  %18 = load i32, ptr %8, align 4, !tbaa !15
  %19 = icmp sgt i32 %18, 255
  br i1 %19, label %20, label %22

20:                                               ; preds = %17, %13
  %21 = load i32, ptr %8, align 4, !tbaa !15
  br label %29

22:                                               ; preds = %17
  %23 = call ptr @__ctype_tolower_loc() #13
  %24 = load ptr, ptr %23, align 8, !tbaa !35
  %25 = load i32, ptr %8, align 4, !tbaa !15
  %26 = sext i32 %25 to i64
  %27 = getelementptr inbounds i32, ptr %24, i64 %26
  %28 = load i32, ptr %27, align 4, !tbaa !15
  br label %29

29:                                               ; preds = %22, %20
  %30 = phi i32 [ %21, %20 ], [ %28, %22 ]
  store i32 %30, ptr %7, align 4, !tbaa !15
  call void @llvm.lifetime.end.p0(i64 4, ptr %8) #11
  br label %34

31:                                               ; preds = %2
  %32 = load i32, ptr %5, align 4, !tbaa !15
  %33 = call i32 @tolower(i32 noundef %32) #12
  store i32 %33, ptr %7, align 4, !tbaa !15
  br label %34

34:                                               ; preds = %31, %29
  %35 = load i32, ptr %7, align 4, !tbaa !15
  store i32 %35, ptr %9, align 4, !tbaa !15
  call void @llvm.lifetime.end.p0(i64 4, ptr %7) #11
  %36 = load i32, ptr %9, align 4, !tbaa !15
  switch i32 %36, label %131 [
    i32 97, label %37
    i32 99, label %46
    i32 100, label %55
    i32 103, label %64
    i32 108, label %73
    i32 112, label %82
    i32 115, label %91
    i32 117, label %100
    i32 119, label %109
    i32 120, label %118
    i32 122, label %127
  ]

37:                                               ; preds = %34
  %38 = call ptr @__ctype_b_loc() #13
  %39 = load ptr, ptr %38, align 8, !tbaa !53
  %40 = load i32, ptr %4, align 4, !tbaa !15
  %41 = sext i32 %40 to i64
  %42 = getelementptr inbounds i16, ptr %39, i64 %41
  %43 = load i16, ptr %42, align 2, !tbaa !55
  %44 = zext i16 %43 to i32
  %45 = and i32 %44, 1024
  store i32 %45, ptr %6, align 4, !tbaa !15
  br label %136

46:                                               ; preds = %34
  %47 = call ptr @__ctype_b_loc() #13
  %48 = load ptr, ptr %47, align 8, !tbaa !53
  %49 = load i32, ptr %4, align 4, !tbaa !15
  %50 = sext i32 %49 to i64
  %51 = getelementptr inbounds i16, ptr %48, i64 %50
  %52 = load i16, ptr %51, align 2, !tbaa !55
  %53 = zext i16 %52 to i32
  %54 = and i32 %53, 2
  store i32 %54, ptr %6, align 4, !tbaa !15
  br label %136

55:                                               ; preds = %34
  %56 = call ptr @__ctype_b_loc() #13
  %57 = load ptr, ptr %56, align 8, !tbaa !53
  %58 = load i32, ptr %4, align 4, !tbaa !15
  %59 = sext i32 %58 to i64
  %60 = getelementptr inbounds i16, ptr %57, i64 %59
  %61 = load i16, ptr %60, align 2, !tbaa !55
  %62 = zext i16 %61 to i32
  %63 = and i32 %62, 2048
  store i32 %63, ptr %6, align 4, !tbaa !15
  br label %136

64:                                               ; preds = %34
  %65 = call ptr @__ctype_b_loc() #13
  %66 = load ptr, ptr %65, align 8, !tbaa !53
  %67 = load i32, ptr %4, align 4, !tbaa !15
  %68 = sext i32 %67 to i64
  %69 = getelementptr inbounds i16, ptr %66, i64 %68
  %70 = load i16, ptr %69, align 2, !tbaa !55
  %71 = zext i16 %70 to i32
  %72 = and i32 %71, 32768
  store i32 %72, ptr %6, align 4, !tbaa !15
  br label %136

73:                                               ; preds = %34
  %74 = call ptr @__ctype_b_loc() #13
  %75 = load ptr, ptr %74, align 8, !tbaa !53
  %76 = load i32, ptr %4, align 4, !tbaa !15
  %77 = sext i32 %76 to i64
  %78 = getelementptr inbounds i16, ptr %75, i64 %77
  %79 = load i16, ptr %78, align 2, !tbaa !55
  %80 = zext i16 %79 to i32
  %81 = and i32 %80, 512
  store i32 %81, ptr %6, align 4, !tbaa !15
  br label %136

82:                                               ; preds = %34
  %83 = call ptr @__ctype_b_loc() #13
  %84 = load ptr, ptr %83, align 8, !tbaa !53
  %85 = load i32, ptr %4, align 4, !tbaa !15
  %86 = sext i32 %85 to i64
  %87 = getelementptr inbounds i16, ptr %84, i64 %86
  %88 = load i16, ptr %87, align 2, !tbaa !55
  %89 = zext i16 %88 to i32
  %90 = and i32 %89, 4
  store i32 %90, ptr %6, align 4, !tbaa !15
  br label %136

91:                                               ; preds = %34
  %92 = call ptr @__ctype_b_loc() #13
  %93 = load ptr, ptr %92, align 8, !tbaa !53
  %94 = load i32, ptr %4, align 4, !tbaa !15
  %95 = sext i32 %94 to i64
  %96 = getelementptr inbounds i16, ptr %93, i64 %95
  %97 = load i16, ptr %96, align 2, !tbaa !55
  %98 = zext i16 %97 to i32
  %99 = and i32 %98, 8192
  store i32 %99, ptr %6, align 4, !tbaa !15
  br label %136

100:                                              ; preds = %34
  %101 = call ptr @__ctype_b_loc() #13
  %102 = load ptr, ptr %101, align 8, !tbaa !53
  %103 = load i32, ptr %4, align 4, !tbaa !15
  %104 = sext i32 %103 to i64
  %105 = getelementptr inbounds i16, ptr %102, i64 %104
  %106 = load i16, ptr %105, align 2, !tbaa !55
  %107 = zext i16 %106 to i32
  %108 = and i32 %107, 256
  store i32 %108, ptr %6, align 4, !tbaa !15
  br label %136

109:                                              ; preds = %34
  %110 = call ptr @__ctype_b_loc() #13
  %111 = load ptr, ptr %110, align 8, !tbaa !53
  %112 = load i32, ptr %4, align 4, !tbaa !15
  %113 = sext i32 %112 to i64
  %114 = getelementptr inbounds i16, ptr %111, i64 %113
  %115 = load i16, ptr %114, align 2, !tbaa !55
  %116 = zext i16 %115 to i32
  %117 = and i32 %116, 8
  store i32 %117, ptr %6, align 4, !tbaa !15
  br label %136

118:                                              ; preds = %34
  %119 = call ptr @__ctype_b_loc() #13
  %120 = load ptr, ptr %119, align 8, !tbaa !53
  %121 = load i32, ptr %4, align 4, !tbaa !15
  %122 = sext i32 %121 to i64
  %123 = getelementptr inbounds i16, ptr %120, i64 %122
  %124 = load i16, ptr %123, align 2, !tbaa !55
  %125 = zext i16 %124 to i32
  %126 = and i32 %125, 4096
  store i32 %126, ptr %6, align 4, !tbaa !15
  br label %136

127:                                              ; preds = %34
  %128 = load i32, ptr %4, align 4, !tbaa !15
  %129 = icmp eq i32 %128, 0
  %130 = zext i1 %129 to i32
  store i32 %130, ptr %6, align 4, !tbaa !15
  br label %136

131:                                              ; preds = %34
  %132 = load i32, ptr %5, align 4, !tbaa !15
  %133 = load i32, ptr %4, align 4, !tbaa !15
  %134 = icmp eq i32 %132, %133
  %135 = zext i1 %134 to i32
  store i32 %135, ptr %3, align 4
  store i32 1, ptr %10, align 4
  br label %155

136:                                              ; preds = %127, %118, %109, %100, %91, %82, %73, %64, %55, %46, %37
  %137 = call ptr @__ctype_b_loc() #13
  %138 = load ptr, ptr %137, align 8, !tbaa !53
  %139 = load i32, ptr %5, align 4, !tbaa !15
  %140 = sext i32 %139 to i64
  %141 = getelementptr inbounds i16, ptr %138, i64 %140
  %142 = load i16, ptr %141, align 2, !tbaa !55
  %143 = zext i16 %142 to i32
  %144 = and i32 %143, 512
  %145 = icmp ne i32 %144, 0
  br i1 %145, label %146, label %148

146:                                              ; preds = %136
  %147 = load i32, ptr %6, align 4, !tbaa !15
  br label %153

148:                                              ; preds = %136
  %149 = load i32, ptr %6, align 4, !tbaa !15
  %150 = icmp ne i32 %149, 0
  %151 = xor i1 %150, true
  %152 = zext i1 %151 to i32
  br label %153

153:                                              ; preds = %148, %146
  %154 = phi i32 [ %147, %146 ], [ %152, %148 ]
  store i32 %154, ptr %3, align 4
  store i32 1, ptr %10, align 4
  br label %155

155:                                              ; preds = %153, %131
  call void @llvm.lifetime.end.p0(i64 4, ptr %6) #11
  %156 = load i32, ptr %3, align 4
  ret i32 %156
}