; Function Attrs: mustprogress nofree nosync nounwind willreturn memory(read, inaccessiblemem: none) uwtable
define internal fastcc range(i32 0, 32769) i32 @match_class(i32 noundef range(i32 0, 256) %0, i32 noundef range(i32 0, 256) %1) unnamed_addr #4 {
  %3 = tail call ptr @__ctype_tolower_loc() #14
  %4 = load ptr, ptr %3, align 8, !tbaa !42
  %5 = zext nneg i32 %1 to i64
  %6 = getelementptr inbounds nuw i32, ptr %4, i64 %5
  %.028 = load i32, ptr %6, align 4, !tbaa !44
  switch i32 %.028, label %90 [
    i32 97, label %7
    i32 99, label %15
    i32 100, label %23
    i32 103, label %31
    i32 108, label %39
    i32 112, label %47
    i32 115, label %55
    i32 117, label %63
    i32 119, label %71
    i32 120, label %79
    i32 122, label %87
  ]

7:                                                ; preds = %2
  %8 = tail call ptr @__ctype_b_loc() #14
  %9 = load ptr, ptr %8, align 8, !tbaa !21
  %10 = zext nneg i32 %0 to i64
  %11 = getelementptr inbounds nuw i16, ptr %9, i64 %10
  %12 = load i16, ptr %11, align 2, !tbaa !23
  %13 = and i16 %12, 1024
  %14 = zext nneg i16 %13 to i32
  br label %93

15:                                               ; preds = %2
  %16 = tail call ptr @__ctype_b_loc() #14
  %17 = load ptr, ptr %16, align 8, !tbaa !21
  %18 = zext nneg i32 %0 to i64
  %19 = getelementptr inbounds nuw i16, ptr %17, i64 %18
  %20 = load i16, ptr %19, align 2, !tbaa !23
  %21 = and i16 %20, 2
  %22 = zext nneg i16 %21 to i32
  br label %93

23:                                               ; preds = %2
  %24 = tail call ptr @__ctype_b_loc() #14
  %25 = load ptr, ptr %24, align 8, !tbaa !21
  %26 = zext nneg i32 %0 to i64
  %27 = getelementptr inbounds nuw i16, ptr %25, i64 %26
  %28 = load i16, ptr %27, align 2, !tbaa !23
  %29 = and i16 %28, 2048
  %30 = zext nneg i16 %29 to i32
  br label %93

31:                                               ; preds = %2
  %32 = tail call ptr @__ctype_b_loc() #14
  %33 = load ptr, ptr %32, align 8, !tbaa !21
  %34 = zext nneg i32 %0 to i64
  %35 = getelementptr inbounds nuw i16, ptr %33, i64 %34
  %36 = load i16, ptr %35, align 2, !tbaa !23
  %37 = and i16 %36, -32768
  %38 = zext i16 %37 to i32
  br label %93

39:                                               ; preds = %2
  %40 = tail call ptr @__ctype_b_loc() #14
  %41 = load ptr, ptr %40, align 8, !tbaa !21
  %42 = zext nneg i32 %0 to i64
  %43 = getelementptr inbounds nuw i16, ptr %41, i64 %42
  %44 = load i16, ptr %43, align 2, !tbaa !23
  %45 = and i16 %44, 512
  %46 = zext nneg i16 %45 to i32
  br label %93

47:                                               ; preds = %2
  %48 = tail call ptr @__ctype_b_loc() #14
  %49 = load ptr, ptr %48, align 8, !tbaa !21
  %50 = zext nneg i32 %0 to i64
  %51 = getelementptr inbounds nuw i16, ptr %49, i64 %50
  %52 = load i16, ptr %51, align 2, !tbaa !23
  %53 = and i16 %52, 4
  %54 = zext nneg i16 %53 to i32
  br label %93

55:                                               ; preds = %2
  %56 = tail call ptr @__ctype_b_loc() #14
  %57 = load ptr, ptr %56, align 8, !tbaa !21
  %58 = zext nneg i32 %0 to i64
  %59 = getelementptr inbounds nuw i16, ptr %57, i64 %58
  %60 = load i16, ptr %59, align 2, !tbaa !23
  %61 = and i16 %60, 8192
  %62 = zext nneg i16 %61 to i32
  br label %93

63:                                               ; preds = %2
  %64 = tail call ptr @__ctype_b_loc() #14
  %65 = load ptr, ptr %64, align 8, !tbaa !21
  %66 = zext nneg i32 %0 to i64
  %67 = getelementptr inbounds nuw i16, ptr %65, i64 %66
  %68 = load i16, ptr %67, align 2, !tbaa !23
  %69 = and i16 %68, 256
  %70 = zext nneg i16 %69 to i32
  br label %93

71:                                               ; preds = %2
  %72 = tail call ptr @__ctype_b_loc() #14
  %73 = load ptr, ptr %72, align 8, !tbaa !21
  %74 = zext nneg i32 %0 to i64
  %75 = getelementptr inbounds nuw i16, ptr %73, i64 %74
  %76 = load i16, ptr %75, align 2, !tbaa !23
  %77 = and i16 %76, 8
  %78 = zext nneg i16 %77 to i32
  br label %93

79:                                               ; preds = %2
  %80 = tail call ptr @__ctype_b_loc() #14
  %81 = load ptr, ptr %80, align 8, !tbaa !21
  %82 = zext nneg i32 %0 to i64
  %83 = getelementptr inbounds nuw i16, ptr %81, i64 %82
  %84 = load i16, ptr %83, align 2, !tbaa !23
  %85 = and i16 %84, 4096
  %86 = zext nneg i16 %85 to i32
  br label %93

87:                                               ; preds = %2
  %88 = icmp eq i32 %0, 0
  %89 = zext i1 %88 to i32
  %.pre = tail call ptr @__ctype_b_loc() #14
  br label %93

90:                                               ; preds = %2
  %91 = icmp eq i32 %1, %0
  %92 = zext i1 %91 to i32
  br label %101

93:                                               ; preds = %87, %79, %71, %63, %55, %47, %39, %31, %23, %15, %7
  %.pre-phi = phi ptr [ %.pre, %87 ], [ %80, %79 ], [ %72, %71 ], [ %64, %63 ], [ %56, %55 ], [ %48, %47 ], [ %40, %39 ], [ %32, %31 ], [ %24, %23 ], [ %16, %15 ], [ %8, %7 ]
  %.027 = phi i32 [ %89, %87 ], [ %86, %79 ], [ %78, %71 ], [ %70, %63 ], [ %62, %55 ], [ %54, %47 ], [ %46, %39 ], [ %38, %31 ], [ %30, %23 ], [ %22, %15 ], [ %14, %7 ]
  %94 = load ptr, ptr %.pre-phi, align 8, !tbaa !21
  %95 = zext nneg i32 %1 to i64
  %96 = getelementptr inbounds nuw i16, ptr %94, i64 %95
  %97 = load i16, ptr %96, align 2, !tbaa !23
  %98 = and i16 %97, 512
  %.not = icmp eq i16 %98, 0
  %.not30 = icmp eq i32 %.027, 0
  %99 = zext i1 %.not30 to i32
  %100 = select i1 %.not, i32 %99, i32 %.027
  br label %101

101:                                              ; preds = %93, %90
  %.0 = phi i32 [ %92, %90 ], [ %100, %93 ]
  ret i32 %.0
}